target datalayout = "e-m:e-p270:32:32-p271:32:32-p272:64:64-i64:64-i128:128-f80:128-n8:16:32:64-S128"
target triple = "x86_64-pc-linux-gnu"

%struct.AVFormatContext = type { ptr, ptr, ptr, ptr, ptr, i32, i32, ptr, i32, ptr, i32, ptr, ptr, i64, i64, i64, i32, i32, i32, i64, i64, ptr, i32, i32, ptr, i32, i32, i32, i32, ptr, i64, i32, i32, %struct.AVIOInterruptCB, i32, i32, i32, i32, i64, i32, i32, i32, i32, i32, i32, i32, i32, i32, i32, i32, i32, i64, i32, i32, i32, i32, i32, ptr, ptr, ptr, ptr, i32, ptr, ptr, ptr, ptr, i32, ptr, ptr, i64, ptr, ptr, ptr, i64 }
%struct.AVIOInterruptCB = type { ptr, ptr }
%struct.AMVContext = type { i64, i64, i64, i32, i32, i32, i32, ptr, ptr, [2 x i64] }
%struct.AVPacket = type { ptr, i64, i64, ptr, i32, i32, i32, ptr, i32, i64, i64, ptr, ptr, %struct.AVRational }
%struct.AVRational = type { i32, i32 }

@.str.9 = private unnamed_addr constant [30 x i8] c"Assertion %s failed at %s:%d\0A\00", align 1
@.str.11 = private unnamed_addr constant [21 x i8] c"libavformat/amvenc.c\00", align 1
@.str.17 = private unnamed_addr constant [2 x i8] c"0\00", align 1

; Function Attrs: nounwind uwtable
define internal i32 @amv_pad(ptr noundef %0, ptr noundef %1) #0 {
  %3 = alloca i32, align 4
  %4 = alloca ptr, align 8
  %5 = alloca ptr, align 8
  %6 = alloca ptr, align 8
  %7 = alloca i32, align 4
  %8 = alloca i32, align 4
  store ptr %0, ptr %4, align 8, !tbaa !4
  store ptr %1, ptr %5, align 8, !tbaa !54
  call void @llvm.lifetime.start.p0(i64 8, ptr %6) #8
  %9 = load ptr, ptr %4, align 8, !tbaa !4
  %10 = getelementptr inbounds nuw %struct.AVFormatContext, ptr %9, i32 0, i32 3
  %11 = load ptr, ptr %10, align 8, !tbaa !9
  store ptr %11, ptr %6, align 8, !tbaa !26
  call void @llvm.lifetime.start.p0(i64 4, ptr %7) #8
  %12 = load ptr, ptr %5, align 8, !tbaa !54
  %13 = getelementptr inbounds nuw %struct.AVPacket, ptr %12, i32 0, i32 5
  %14 = load i32, ptr %13, align 4, !tbaa !56
  store i32 %14, ptr %7, align 4, !tbaa !55
  %15 = load i32, ptr %7, align 4, !tbaa !55
  %16 = load ptr, ptr %6, align 8, !tbaa !26
  %17 = getelementptr inbounds nuw %struct.AMVContext, ptr %16, i32 0, i32 3
  %18 = load i32, ptr %17, align 8, !tbaa !58
  %19 = icmp ne i32 %15, %18
  br i1 %19, label %20, label %21

20:                                               ; preds = %2
  store i32 0, ptr %3, align 4
  store i32 1, ptr %8, align 4
  br label %51

21:                                               ; preds = %2
  %22 = load i32, ptr %7, align 4, !tbaa !55
  %23 = add nsw i32 %22, 1
  %24 = load ptr, ptr %4, align 8, !tbaa !4
  %25 = getelementptr inbounds nuw %struct.AVFormatContext, ptr %24, i32 0, i32 6
  %26 = load i32, ptr %25, align 4, !tbaa !62
  %27 = urem i32 %23, %26
  store i32 %27, ptr %7, align 4, !tbaa !55
  %28 = load i32, ptr %7, align 4, !tbaa !55
  %29 = icmp eq i32 %28, 0
  br i1 %29, label %30, label %36

30:                                               ; preds = %21
  %31 = load ptr, ptr %4, align 8, !tbaa !4
  %32 = load ptr, ptr %6, align 8, !tbaa !26
  %33 = getelementptr inbounds nuw %struct.AMVContext, ptr %32, i32 0, i32 8
  %34 = load ptr, ptr %33, align 8, !tbaa !57
  %35 = call i32 @amv_write_packet_internal(ptr noundef %31, ptr noundef %34)
  store i32 %35, ptr %3, align 4
  store i32 1, ptr %8, align 4
  br label %51

36:                                               ; preds = %21
  %37 = load i32, ptr %7, align 4, !tbaa !55
  %38 = icmp eq i32 %37, 1
  br i1 %38, label %39, label %45

39:                                               ; preds = %36
  %40 = load ptr, ptr %4, align 8, !tbaa !4
  %41 = load ptr, ptr %6, align 8, !tbaa !26
  %42 = getelementptr inbounds nuw %struct.AMVContext, ptr %41, i32 0, i32 7
  %43 = load ptr, ptr %42, align 8, !tbaa !59
  %44 = call i32 @amv_write_packet_internal(ptr noundef %40, ptr noundef %43)
  store i32 %44, ptr %3, align 4
  store i32 1, ptr %8, align 4
  br label %51

45:                                               ; preds = %36
  br label %46

46:                                               ; preds = %45
  call void (ptr, i32, ptr, ...) @av_log(ptr noundef null, i32 noundef 0, ptr noundef @.str.9, ptr noundef @.str.17, ptr noundef @.str.11, i32 noundef 333)
  call void @abort() #10
  unreachable

47:                                               ; No predecessors!
  br label %48

48:                                               ; preds = %47
  br label %49

49:                                               ; preds = %48
  br label %50

50:                                               ; preds = %49
  store i32 -22, ptr %3, align 4
  store i32 1, ptr %8, align 4
  br label %51

51:                                               ; preds = %50, %39, %30, %20
  call void @llvm.lifetime.end.p0(i64 4, ptr %7) #8
  call void @llvm.lifetime.end.p0(i64 8, ptr %6) #8
  %52 = load i32, ptr %3, align 4
  ret i32 %52
}

; Function Attrs: nounwind uwtable
define internal i32 @amv_write_packet(ptr noundef %0, ptr noundef %1) #0 {
  %3 = alloca i32, align 4
  %4 = alloca ptr, align 8
  %5 = alloca ptr, align 8
  %6 = alloca ptr, align 8
  %7 = alloca i32, align 4
  %8 = alloca i32, align 4
  store ptr %0, ptr %4, align 8, !tbaa !4
  store ptr %1, ptr %5, align 8, !tbaa !54
  call void @llvm.lifetime.start.p0(i64 8, ptr %6) #8
  %9 = load ptr, ptr %4, align 8, !tbaa !4
  %10 = getelementptr inbounds nuw %struct.AVFormatContext, ptr %9, i32 0, i32 3
  %11 = load ptr, ptr %10, align 8, !tbaa !9
  store ptr %11, ptr %6, align 8, !tbaa !26
  call void @llvm.lifetime.start.p0(i64 4, ptr %7) #8
  %12 = load ptr, ptr %4, align 8, !tbaa !4
  %13 = load ptr, ptr %5, align 8, !tbaa !54
  %14 = call i32 @amv_pad(ptr noundef %12, ptr noundef %13)
  store i32 %14, ptr %7, align 4, !tbaa !55
  %15 = icmp slt i32 %14, 0
  br i1 %15, label %16, label %18

16:                                               ; preds = %2
  %17 = load i32, ptr %7, align 4, !tbaa !55
  store i32 %17, ptr %3, align 4
  store i32 1, ptr %8, align 4
  br label %44

18:                                               ; preds = %2
  %19 = load ptr, ptr %4, align 8, !tbaa !4
  %20 = load ptr, ptr %5, align 8, !tbaa !54
  %21 = call i32 @amv_write_packet_internal(ptr noundef %19, ptr noundef %20)
  store i32 %21, ptr %7, align 4, !tbaa !55
  %22 = icmp slt i32 %21, 0
  br i1 %22, label %23, label %25

23:                                               ; preds = %18
  %24 = load i32, ptr %7, align 4, !tbaa !55
  store i32 %24, ptr %3, align 4
  store i32 1, ptr %8, align 4
  br label %44

25:                                               ; preds = %18
  %26 = load ptr, ptr %5, align 8, !tbaa !54
  %27 = getelementptr inbounds nuw %struct.AVPacket, ptr %26, i32 0, i32 5
  %28 = load i32, ptr %27, align 4, !tbaa !56
  %29 = icmp eq i32 %28, 0
  br i1 %29, label %30, label %43

30:                                               ; preds = %25
  %31 = load ptr, ptr %6, align 8, !tbaa !26
  %32 = getelementptr inbounds nuw %struct.AMVContext, ptr %31, i32 0, i32 8
  %33 = load ptr, ptr %32, align 8, !tbaa !57
  call void @av_packet_unref(ptr noundef %33)
  %34 = load ptr, ptr %6, align 8, !tbaa !26
  %35 = getelementptr inbounds nuw %struct.AMVContext, ptr %34, i32 0, i32 8
  %36 = load ptr, ptr %35, align 8, !tbaa !57
  %37 = load ptr, ptr %5, align 8, !tbaa !54
  %38 = call i32 @av_packet_ref(ptr noundef %36, ptr noundef %37)
  store i32 %38, ptr %7, align 4, !tbaa !55
  %39 = icmp slt i32 %38, 0
  br i1 %39, label %40, label %42

40:                                               ; preds = %30
  %41 = load i32, ptr %7, align 4, !tbaa !55
  store i32 %41, ptr %3, align 4
  store i32 1, ptr %8, align 4
  br label %44

42:                                               ; preds = %30
  br label %43

43:                                               ; preds = %42, %25
  store i32 0, ptr %3, align 4
  store i32 1, ptr %8, align 4
  br label %44

44:                                               ; preds = %43, %40, %23, %16
  call void @llvm.lifetime.end.p0(i64 4, ptr %7) #8
  call void @llvm.lifetime.end.p0(i64 8, ptr %6) #8
  %45 = load i32, ptr %3, align 4
  ret i32 %45
}