; Function Attrs: nounwind uwtable
define internal range(i32 -2147483648, 1) i32 @amv_write_packet(ptr noundef %0, ptr noundef %1) #0 {
  %3 = getelementptr inbounds nuw i8, ptr %0, i64 24
  %4 = load ptr, ptr %3, align 8, !tbaa !4
  %5 = getelementptr i8, ptr %1, i64 36
  %.val = load i32, ptr %5, align 4, !tbaa !51
  %6 = getelementptr inbounds nuw i8, ptr %4, i64 24
  %7 = load i32, ptr %6, align 8, !tbaa !52
  %.not.i = icmp eq i32 %.val, %7
  br i1 %.not.i, label %8, label %amv_pad.exit

8:                                                ; preds = %2
  %9 = add nsw i32 %.val, 1
  %10 = getelementptr inbounds nuw i8, ptr %0, i64 44
  %11 = load i32, ptr %10, align 4, !tbaa !53
  %12 = urem i32 %9, %11
  switch i32 %12, label %14 [
    i32 0, label %.sink.split.i
    i32 1, label %13
  ]

13:                                               ; preds = %8
  br label %.sink.split.i

14:                                               ; preds = %8
  tail call void (ptr, i32, ptr, ...) @av_log(ptr noundef null, i32 noundef 0, ptr noundef nonnull @.str.9, ptr noundef nonnull @.str.17, ptr noundef nonnull @.str.11, i32 noundef 333) #8
  tail call void @abort() #9
  unreachable

.sink.split.i:                                    ; preds = %13, %8
  %.sink.i = phi i64 [ 40, %13 ], [ 48, %8 ]
  %15 = getelementptr inbounds nuw i8, ptr %4, i64 %.sink.i
  %16 = load ptr, ptr %15, align 8, !tbaa !54
  tail call fastcc void @amv_write_packet_internal(ptr noundef nonnull %0, ptr noundef %16)
  br label %amv_pad.exit

amv_pad.exit:                                     ; preds = %2, %.sink.split.i
  tail call fastcc void @amv_write_packet_internal(ptr noundef nonnull %0, ptr noundef nonnull %1)
  %17 = load i32, ptr %5, align 4, !tbaa !51
  %18 = icmp eq i32 %17, 0
  br i1 %18, label %19, label %25

19:                                               ; preds = %amv_pad.exit
  %20 = getelementptr inbounds nuw i8, ptr %4, i64 48
  %21 = load ptr, ptr %20, align 8, !tbaa !55
  tail call void @av_packet_unref(ptr noundef %21) #8
  %22 = load ptr, ptr %20, align 8, !tbaa !55
  %23 = tail call i32 @av_packet_ref(ptr noundef %22, ptr noundef nonnull %1) #8
  %24 = icmp slt i32 %23, 0
  br i1 %24, label %26, label %25

25:                                               ; preds = %19, %amv_pad.exit
  br label %26

26:                                               ; preds = %19, %25
  %.0 = phi i32 [ 0, %25 ], [ %23, %19 ]
  ret i32 %.0
}